ARM GAS  /var/folders/gg/1prykzgd72385vwcgrq9wzdr0000gn/T//ccja3xKA.s 			page 1


   1              		.syntax unified
   2              		.cpu cortex-m4
   3              		.eabi_attribute 27, 3
   4              		.eabi_attribute 28, 1
   5              		.fpu fpv4-sp-d16
   6              		.eabi_attribute 20, 1
   7              		.eabi_attribute 21, 1
   8              		.eabi_attribute 23, 3
   9              		.eabi_attribute 24, 1
  10              		.eabi_attribute 25, 1
  11              		.eabi_attribute 26, 1
  12              		.eabi_attribute 30, 1
  13              		.eabi_attribute 34, 1
  14              		.eabi_attribute 18, 4
  15              		.thumb
  16              		.file	"i2c.c"
  17              		.text
  18              	.Ltext0:
  19              		.cfi_sections	.debug_frame
  20              		.section	.text.MX_I2C2_Init,"ax",%progbits
  21              		.align	2
  22              		.global	MX_I2C2_Init
  23              		.thumb
  24              		.thumb_func
  26              	MX_I2C2_Init:
  27              	.LFB123:
  28              		.file 1 "Src/i2c.c"
   1:Src/i2c.c     **** /**
   2:Src/i2c.c     ****   ******************************************************************************
   3:Src/i2c.c     ****   * File Name          : I2C.c
   4:Src/i2c.c     ****   * Description        : This file provides code for the configuration
   5:Src/i2c.c     ****   *                      of the I2C instances.
   6:Src/i2c.c     ****   ******************************************************************************
   7:Src/i2c.c     ****   ** This notice applies to any and all portions of this file
   8:Src/i2c.c     ****   * that are not between comment pairs USER CODE BEGIN and
   9:Src/i2c.c     ****   * USER CODE END. Other portions of this file, whether 
  10:Src/i2c.c     ****   * inserted by the user or by software development tools
  11:Src/i2c.c     ****   * are owned by their respective copyright owners.
  12:Src/i2c.c     ****   *
  13:Src/i2c.c     ****   * COPYRIGHT(c) 2018 STMicroelectronics
  14:Src/i2c.c     ****   *
  15:Src/i2c.c     ****   * Redistribution and use in source and binary forms, with or without modification,
  16:Src/i2c.c     ****   * are permitted provided that the following conditions are met:
  17:Src/i2c.c     ****   *   1. Redistributions of source code must retain the above copyright notice,
  18:Src/i2c.c     ****   *      this list of conditions and the following disclaimer.
  19:Src/i2c.c     ****   *   2. Redistributions in binary form must reproduce the above copyright notice,
  20:Src/i2c.c     ****   *      this list of conditions and the following disclaimer in the documentation
  21:Src/i2c.c     ****   *      and/or other materials provided with the distribution.
  22:Src/i2c.c     ****   *   3. Neither the name of STMicroelectronics nor the names of its contributors
  23:Src/i2c.c     ****   *      may be used to endorse or promote products derived from this software
  24:Src/i2c.c     ****   *      without specific prior written permission.
  25:Src/i2c.c     ****   *
  26:Src/i2c.c     ****   * THIS SOFTWARE IS PROVIDED BY THE COPYRIGHT HOLDERS AND CONTRIBUTORS "AS IS"
  27:Src/i2c.c     ****   * AND ANY EXPRESS OR IMPLIED WARRANTIES, INCLUDING, BUT NOT LIMITED TO, THE
  28:Src/i2c.c     ****   * IMPLIED WARRANTIES OF MERCHANTABILITY AND FITNESS FOR A PARTICULAR PURPOSE ARE
  29:Src/i2c.c     ****   * DISCLAIMED. IN NO EVENT SHALL THE COPYRIGHT HOLDER OR CONTRIBUTORS BE LIABLE
  30:Src/i2c.c     ****   * FOR ANY DIRECT, INDIRECT, INCIDENTAL, SPECIAL, EXEMPLARY, OR CONSEQUENTIAL
ARM GAS  /var/folders/gg/1prykzgd72385vwcgrq9wzdr0000gn/T//ccja3xKA.s 			page 2


  31:Src/i2c.c     ****   * DAMAGES (INCLUDING, BUT NOT LIMITED TO, PROCUREMENT OF SUBSTITUTE GOODS OR
  32:Src/i2c.c     ****   * SERVICES; LOSS OF USE, DATA, OR PROFITS; OR BUSINESS INTERRUPTION) HOWEVER
  33:Src/i2c.c     ****   * CAUSED AND ON ANY THEORY OF LIABILITY, WHETHER IN CONTRACT, STRICT LIABILITY,
  34:Src/i2c.c     ****   * OR TORT (INCLUDING NEGLIGENCE OR OTHERWISE) ARISING IN ANY WAY OUT OF THE USE
  35:Src/i2c.c     ****   * OF THIS SOFTWARE, EVEN IF ADVISED OF THE POSSIBILITY OF SUCH DAMAGE.
  36:Src/i2c.c     ****   *
  37:Src/i2c.c     ****   ******************************************************************************
  38:Src/i2c.c     ****   */
  39:Src/i2c.c     **** 
  40:Src/i2c.c     **** /* Includes ------------------------------------------------------------------*/
  41:Src/i2c.c     **** #include "i2c.h"
  42:Src/i2c.c     **** 
  43:Src/i2c.c     **** #include "gpio.h"
  44:Src/i2c.c     **** #include "dma.h"
  45:Src/i2c.c     **** 
  46:Src/i2c.c     **** /* USER CODE BEGIN 0 */
  47:Src/i2c.c     **** 
  48:Src/i2c.c     **** /* USER CODE END 0 */
  49:Src/i2c.c     **** 
  50:Src/i2c.c     **** I2C_HandleTypeDef hi2c2;
  51:Src/i2c.c     **** I2C_HandleTypeDef hi2c3;
  52:Src/i2c.c     **** DMA_HandleTypeDef hdma_i2c2_rx;
  53:Src/i2c.c     **** DMA_HandleTypeDef hdma_i2c2_tx;
  54:Src/i2c.c     **** DMA_HandleTypeDef hdma_i2c3_rx;
  55:Src/i2c.c     **** DMA_HandleTypeDef hdma_i2c3_tx;
  56:Src/i2c.c     **** 
  57:Src/i2c.c     **** /* I2C2 init function */
  58:Src/i2c.c     **** void MX_I2C2_Init(void)
  59:Src/i2c.c     **** {
  29              		.loc 1 59 0
  30              		.cfi_startproc
  31              		@ args = 0, pretend = 0, frame = 0
  32              		@ frame_needed = 0, uses_anonymous_args = 0
  33 0000 08B5     		push	{r3, lr}
  34              	.LCFI0:
  35              		.cfi_def_cfa_offset 8
  36              		.cfi_offset 3, -8
  37              		.cfi_offset 14, -4
  60:Src/i2c.c     **** 
  61:Src/i2c.c     ****   hi2c2.Instance = I2C2;
  38              		.loc 1 61 0
  39 0002 0B48     		ldr	r0, .L4
  40 0004 0B4B     		ldr	r3, .L4+4
  41 0006 0360     		str	r3, [r0]
  62:Src/i2c.c     ****   hi2c2.Init.ClockSpeed = 400000;
  42              		.loc 1 62 0
  43 0008 0B4B     		ldr	r3, .L4+8
  44 000a 4360     		str	r3, [r0, #4]
  63:Src/i2c.c     ****   hi2c2.Init.DutyCycle = I2C_DUTYCYCLE_2;
  45              		.loc 1 63 0
  46 000c 0023     		movs	r3, #0
  47 000e 8360     		str	r3, [r0, #8]
  64:Src/i2c.c     ****   hi2c2.Init.OwnAddress1 = 0;
  48              		.loc 1 64 0
  49 0010 C360     		str	r3, [r0, #12]
  65:Src/i2c.c     ****   hi2c2.Init.AddressingMode = I2C_ADDRESSINGMODE_7BIT;
  50              		.loc 1 65 0
ARM GAS  /var/folders/gg/1prykzgd72385vwcgrq9wzdr0000gn/T//ccja3xKA.s 			page 3


  51 0012 4FF48042 		mov	r2, #16384
  52 0016 0261     		str	r2, [r0, #16]
  66:Src/i2c.c     ****   hi2c2.Init.DualAddressMode = I2C_DUALADDRESS_DISABLE;
  53              		.loc 1 66 0
  54 0018 4361     		str	r3, [r0, #20]
  67:Src/i2c.c     ****   hi2c2.Init.OwnAddress2 = 0;
  55              		.loc 1 67 0
  56 001a 8361     		str	r3, [r0, #24]
  68:Src/i2c.c     ****   hi2c2.Init.GeneralCallMode = I2C_GENERALCALL_DISABLE;
  57              		.loc 1 68 0
  58 001c C361     		str	r3, [r0, #28]
  69:Src/i2c.c     ****   hi2c2.Init.NoStretchMode = I2C_NOSTRETCH_DISABLE;
  59              		.loc 1 69 0
  60 001e 0362     		str	r3, [r0, #32]
  70:Src/i2c.c     ****   if (HAL_I2C_Init(&hi2c2) != HAL_OK)
  61              		.loc 1 70 0
  62 0020 FFF7FEFF 		bl	HAL_I2C_Init
  63              	.LVL0:
  64 0024 18B1     		cbz	r0, .L1
  71:Src/i2c.c     ****   {
  72:Src/i2c.c     ****     _Error_Handler(__FILE__, __LINE__);
  65              		.loc 1 72 0
  66 0026 0548     		ldr	r0, .L4+12
  67 0028 4821     		movs	r1, #72
  68 002a FFF7FEFF 		bl	_Error_Handler
  69              	.LVL1:
  70              	.L1:
  71 002e 08BD     		pop	{r3, pc}
  72              	.L5:
  73              		.align	2
  74              	.L4:
  75 0030 00000000 		.word	hi2c2
  76 0034 00580040 		.word	1073764352
  77 0038 801A0600 		.word	400000
  78 003c 00000000 		.word	.LC0
  79              		.cfi_endproc
  80              	.LFE123:
  82              		.section	.text.MX_I2C3_Init,"ax",%progbits
  83              		.align	2
  84              		.global	MX_I2C3_Init
  85              		.thumb
  86              		.thumb_func
  88              	MX_I2C3_Init:
  89              	.LFB124:
  73:Src/i2c.c     ****   }
  74:Src/i2c.c     **** 
  75:Src/i2c.c     **** }
  76:Src/i2c.c     **** /* I2C3 init function */
  77:Src/i2c.c     **** void MX_I2C3_Init(void)
  78:Src/i2c.c     **** {
  90              		.loc 1 78 0
  91              		.cfi_startproc
  92              		@ args = 0, pretend = 0, frame = 0
  93              		@ frame_needed = 0, uses_anonymous_args = 0
  94 0000 08B5     		push	{r3, lr}
  95              	.LCFI1:
  96              		.cfi_def_cfa_offset 8
ARM GAS  /var/folders/gg/1prykzgd72385vwcgrq9wzdr0000gn/T//ccja3xKA.s 			page 4


  97              		.cfi_offset 3, -8
  98              		.cfi_offset 14, -4
  79:Src/i2c.c     **** 
  80:Src/i2c.c     ****   hi2c3.Instance = I2C3;
  99              		.loc 1 80 0
 100 0002 0B48     		ldr	r0, .L9
 101 0004 0B4B     		ldr	r3, .L9+4
 102 0006 0360     		str	r3, [r0]
  81:Src/i2c.c     ****   hi2c3.Init.ClockSpeed = 400000;
 103              		.loc 1 81 0
 104 0008 0B4B     		ldr	r3, .L9+8
 105 000a 4360     		str	r3, [r0, #4]
  82:Src/i2c.c     ****   hi2c3.Init.DutyCycle = I2C_DUTYCYCLE_2;
 106              		.loc 1 82 0
 107 000c 0023     		movs	r3, #0
 108 000e 8360     		str	r3, [r0, #8]
  83:Src/i2c.c     ****   hi2c3.Init.OwnAddress1 = 0;
 109              		.loc 1 83 0
 110 0010 C360     		str	r3, [r0, #12]
  84:Src/i2c.c     ****   hi2c3.Init.AddressingMode = I2C_ADDRESSINGMODE_7BIT;
 111              		.loc 1 84 0
 112 0012 4FF48042 		mov	r2, #16384
 113 0016 0261     		str	r2, [r0, #16]
  85:Src/i2c.c     ****   hi2c3.Init.DualAddressMode = I2C_DUALADDRESS_DISABLE;
 114              		.loc 1 85 0
 115 0018 4361     		str	r3, [r0, #20]
  86:Src/i2c.c     ****   hi2c3.Init.OwnAddress2 = 0;
 116              		.loc 1 86 0
 117 001a 8361     		str	r3, [r0, #24]
  87:Src/i2c.c     ****   hi2c3.Init.GeneralCallMode = I2C_GENERALCALL_DISABLE;
 118              		.loc 1 87 0
 119 001c C361     		str	r3, [r0, #28]
  88:Src/i2c.c     ****   hi2c3.Init.NoStretchMode = I2C_NOSTRETCH_DISABLE;
 120              		.loc 1 88 0
 121 001e 0362     		str	r3, [r0, #32]
  89:Src/i2c.c     ****   if (HAL_I2C_Init(&hi2c3) != HAL_OK)
 122              		.loc 1 89 0
 123 0020 FFF7FEFF 		bl	HAL_I2C_Init
 124              	.LVL2:
 125 0024 18B1     		cbz	r0, .L6
  90:Src/i2c.c     ****   {
  91:Src/i2c.c     ****     _Error_Handler(__FILE__, __LINE__);
 126              		.loc 1 91 0
 127 0026 0548     		ldr	r0, .L9+12
 128 0028 5B21     		movs	r1, #91
 129 002a FFF7FEFF 		bl	_Error_Handler
 130              	.LVL3:
 131              	.L6:
 132 002e 08BD     		pop	{r3, pc}
 133              	.L10:
 134              		.align	2
 135              	.L9:
 136 0030 00000000 		.word	hi2c3
 137 0034 005C0040 		.word	1073765376
 138 0038 801A0600 		.word	400000
 139 003c 00000000 		.word	.LC0
 140              		.cfi_endproc
ARM GAS  /var/folders/gg/1prykzgd72385vwcgrq9wzdr0000gn/T//ccja3xKA.s 			page 5


 141              	.LFE124:
 143              		.section	.text.HAL_I2C_MspInit,"ax",%progbits
 144              		.align	2
 145              		.global	HAL_I2C_MspInit
 146              		.thumb
 147              		.thumb_func
 149              	HAL_I2C_MspInit:
 150              	.LFB125:
  92:Src/i2c.c     ****   }
  93:Src/i2c.c     **** 
  94:Src/i2c.c     **** }
  95:Src/i2c.c     **** 
  96:Src/i2c.c     **** void HAL_I2C_MspInit(I2C_HandleTypeDef* i2cHandle)
  97:Src/i2c.c     **** {
 151              		.loc 1 97 0
 152              		.cfi_startproc
 153              		@ args = 0, pretend = 0, frame = 32
 154              		@ frame_needed = 0, uses_anonymous_args = 0
 155              	.LVL4:
 156 0000 2DE9F043 		push	{r4, r5, r6, r7, r8, r9, lr}
 157              	.LCFI2:
 158              		.cfi_def_cfa_offset 28
 159              		.cfi_offset 4, -28
 160              		.cfi_offset 5, -24
 161              		.cfi_offset 6, -20
 162              		.cfi_offset 7, -16
 163              		.cfi_offset 8, -12
 164              		.cfi_offset 9, -8
 165              		.cfi_offset 14, -4
 166 0004 89B0     		sub	sp, sp, #36
 167              	.LCFI3:
 168              		.cfi_def_cfa_offset 64
 169 0006 0446     		mov	r4, r0
  98:Src/i2c.c     **** 
  99:Src/i2c.c     ****   GPIO_InitTypeDef GPIO_InitStruct;
 100:Src/i2c.c     ****   if(i2cHandle->Instance==I2C2)
 170              		.loc 1 100 0
 171 0008 0368     		ldr	r3, [r0]
 172 000a 644A     		ldr	r2, .L19
 173 000c 9342     		cmp	r3, r2
 174 000e 60D1     		bne	.L12
 101:Src/i2c.c     ****   {
 102:Src/i2c.c     ****   /* USER CODE BEGIN I2C2_MspInit 0 */
 103:Src/i2c.c     **** 
 104:Src/i2c.c     ****   /* USER CODE END I2C2_MspInit 0 */
 105:Src/i2c.c     ****   
 106:Src/i2c.c     ****     /**I2C2 GPIO Configuration    
 107:Src/i2c.c     ****     PB10     ------> I2C2_SCL
 108:Src/i2c.c     ****     PC12     ------> I2C2_SDA 
 109:Src/i2c.c     ****     */
 110:Src/i2c.c     ****     GPIO_InitStruct.Pin = GPIO_PIN_10;
 175              		.loc 1 110 0
 176 0010 4FF48065 		mov	r5, #1024
 177 0014 0395     		str	r5, [sp, #12]
 111:Src/i2c.c     ****     GPIO_InitStruct.Mode = GPIO_MODE_AF_OD;
 178              		.loc 1 111 0
 179 0016 4FF01209 		mov	r9, #18
ARM GAS  /var/folders/gg/1prykzgd72385vwcgrq9wzdr0000gn/T//ccja3xKA.s 			page 6


 180 001a CDF81090 		str	r9, [sp, #16]
 112:Src/i2c.c     ****     GPIO_InitStruct.Pull = GPIO_PULLUP;
 181              		.loc 1 112 0
 182 001e 4FF00108 		mov	r8, #1
 183 0022 CDF81480 		str	r8, [sp, #20]
 113:Src/i2c.c     ****     GPIO_InitStruct.Speed = GPIO_SPEED_FREQ_VERY_HIGH;
 184              		.loc 1 113 0
 185 0026 0327     		movs	r7, #3
 186 0028 0697     		str	r7, [sp, #24]
 114:Src/i2c.c     ****     GPIO_InitStruct.Alternate = GPIO_AF4_I2C2;
 187              		.loc 1 114 0
 188 002a 0426     		movs	r6, #4
 189 002c 0796     		str	r6, [sp, #28]
 115:Src/i2c.c     ****     HAL_GPIO_Init(GPIOB, &GPIO_InitStruct);
 190              		.loc 1 115 0
 191 002e 5C48     		ldr	r0, .L19+4
 192              	.LVL5:
 193 0030 03A9     		add	r1, sp, #12
 194 0032 FFF7FEFF 		bl	HAL_GPIO_Init
 195              	.LVL6:
 116:Src/i2c.c     **** 
 117:Src/i2c.c     ****     GPIO_InitStruct.Pin = GPIO_PIN_12;
 196              		.loc 1 117 0
 197 0036 4FF48053 		mov	r3, #4096
 198 003a 0393     		str	r3, [sp, #12]
 118:Src/i2c.c     ****     GPIO_InitStruct.Mode = GPIO_MODE_AF_OD;
 199              		.loc 1 118 0
 200 003c CDF81090 		str	r9, [sp, #16]
 119:Src/i2c.c     ****     GPIO_InitStruct.Pull = GPIO_PULLUP;
 201              		.loc 1 119 0
 202 0040 CDF81480 		str	r8, [sp, #20]
 120:Src/i2c.c     ****     GPIO_InitStruct.Speed = GPIO_SPEED_FREQ_VERY_HIGH;
 203              		.loc 1 120 0
 204 0044 0697     		str	r7, [sp, #24]
 121:Src/i2c.c     ****     GPIO_InitStruct.Alternate = GPIO_AF4_I2C2;
 205              		.loc 1 121 0
 206 0046 0796     		str	r6, [sp, #28]
 122:Src/i2c.c     ****     HAL_GPIO_Init(GPIOC, &GPIO_InitStruct);
 207              		.loc 1 122 0
 208 0048 5648     		ldr	r0, .L19+8
 209 004a 03A9     		add	r1, sp, #12
 210 004c FFF7FEFF 		bl	HAL_GPIO_Init
 211              	.LVL7:
 212              	.LBB2:
 123:Src/i2c.c     **** 
 124:Src/i2c.c     ****     /* I2C2 clock enable */
 125:Src/i2c.c     ****     __HAL_RCC_I2C2_CLK_ENABLE();
 213              		.loc 1 125 0
 214 0050 0023     		movs	r3, #0
 215 0052 0193     		str	r3, [sp, #4]
 216 0054 544A     		ldr	r2, .L19+12
 217 0056 116C     		ldr	r1, [r2, #64]
 218 0058 41F48001 		orr	r1, r1, #4194304
 219 005c 1164     		str	r1, [r2, #64]
 220 005e 126C     		ldr	r2, [r2, #64]
 221 0060 02F48002 		and	r2, r2, #4194304
 222 0064 0192     		str	r2, [sp, #4]
ARM GAS  /var/folders/gg/1prykzgd72385vwcgrq9wzdr0000gn/T//ccja3xKA.s 			page 7


 223 0066 019A     		ldr	r2, [sp, #4]
 224              	.LBE2:
 126:Src/i2c.c     ****   
 127:Src/i2c.c     ****     /* I2C2 DMA Init */
 128:Src/i2c.c     ****     /* I2C2_RX Init */
 129:Src/i2c.c     ****     hdma_i2c2_rx.Instance = DMA1_Stream2;
 225              		.loc 1 129 0
 226 0068 5048     		ldr	r0, .L19+16
 227 006a 514A     		ldr	r2, .L19+20
 228 006c 0260     		str	r2, [r0]
 130:Src/i2c.c     ****     hdma_i2c2_rx.Init.Channel = DMA_CHANNEL_7;
 229              		.loc 1 130 0
 230 006e 4FF06062 		mov	r2, #234881024
 231 0072 4260     		str	r2, [r0, #4]
 131:Src/i2c.c     ****     hdma_i2c2_rx.Init.Direction = DMA_PERIPH_TO_MEMORY;
 232              		.loc 1 131 0
 233 0074 8360     		str	r3, [r0, #8]
 132:Src/i2c.c     ****     hdma_i2c2_rx.Init.PeriphInc = DMA_PINC_DISABLE;
 234              		.loc 1 132 0
 235 0076 C360     		str	r3, [r0, #12]
 133:Src/i2c.c     ****     hdma_i2c2_rx.Init.MemInc = DMA_MINC_ENABLE;
 236              		.loc 1 133 0
 237 0078 0561     		str	r5, [r0, #16]
 134:Src/i2c.c     ****     hdma_i2c2_rx.Init.PeriphDataAlignment = DMA_PDATAALIGN_BYTE;
 238              		.loc 1 134 0
 239 007a 4361     		str	r3, [r0, #20]
 135:Src/i2c.c     ****     hdma_i2c2_rx.Init.MemDataAlignment = DMA_MDATAALIGN_BYTE;
 240              		.loc 1 135 0
 241 007c 8361     		str	r3, [r0, #24]
 136:Src/i2c.c     ****     hdma_i2c2_rx.Init.Mode = DMA_NORMAL;
 242              		.loc 1 136 0
 243 007e C361     		str	r3, [r0, #28]
 137:Src/i2c.c     ****     hdma_i2c2_rx.Init.Priority = DMA_PRIORITY_LOW;
 244              		.loc 1 137 0
 245 0080 0362     		str	r3, [r0, #32]
 138:Src/i2c.c     ****     hdma_i2c2_rx.Init.FIFOMode = DMA_FIFOMODE_DISABLE;
 246              		.loc 1 138 0
 247 0082 4362     		str	r3, [r0, #36]
 139:Src/i2c.c     ****     if (HAL_DMA_Init(&hdma_i2c2_rx) != HAL_OK)
 248              		.loc 1 139 0
 249 0084 FFF7FEFF 		bl	HAL_DMA_Init
 250              	.LVL8:
 251 0088 18B1     		cbz	r0, .L13
 140:Src/i2c.c     ****     {
 141:Src/i2c.c     ****       _Error_Handler(__FILE__, __LINE__);
 252              		.loc 1 141 0
 253 008a 4A48     		ldr	r0, .L19+24
 254 008c 8D21     		movs	r1, #141
 255 008e FFF7FEFF 		bl	_Error_Handler
 256              	.LVL9:
 257              	.L13:
 142:Src/i2c.c     ****     }
 143:Src/i2c.c     **** 
 144:Src/i2c.c     ****     __HAL_LINKDMA(i2cHandle,hdmarx,hdma_i2c2_rx);
 258              		.loc 1 144 0
 259 0092 464B     		ldr	r3, .L19+16
 260 0094 A363     		str	r3, [r4, #56]
ARM GAS  /var/folders/gg/1prykzgd72385vwcgrq9wzdr0000gn/T//ccja3xKA.s 			page 8


 261 0096 9C63     		str	r4, [r3, #56]
 145:Src/i2c.c     **** 
 146:Src/i2c.c     ****     /* I2C2_TX Init */
 147:Src/i2c.c     ****     hdma_i2c2_tx.Instance = DMA1_Stream7;
 262              		.loc 1 147 0
 263 0098 4748     		ldr	r0, .L19+28
 264 009a 484B     		ldr	r3, .L19+32
 265 009c 0360     		str	r3, [r0]
 148:Src/i2c.c     ****     hdma_i2c2_tx.Init.Channel = DMA_CHANNEL_7;
 266              		.loc 1 148 0
 267 009e 4FF06063 		mov	r3, #234881024
 268 00a2 4360     		str	r3, [r0, #4]
 149:Src/i2c.c     ****     hdma_i2c2_tx.Init.Direction = DMA_MEMORY_TO_PERIPH;
 269              		.loc 1 149 0
 270 00a4 4023     		movs	r3, #64
 271 00a6 8360     		str	r3, [r0, #8]
 150:Src/i2c.c     ****     hdma_i2c2_tx.Init.PeriphInc = DMA_PINC_DISABLE;
 272              		.loc 1 150 0
 273 00a8 0023     		movs	r3, #0
 274 00aa C360     		str	r3, [r0, #12]
 151:Src/i2c.c     ****     hdma_i2c2_tx.Init.MemInc = DMA_MINC_ENABLE;
 275              		.loc 1 151 0
 276 00ac 4FF48062 		mov	r2, #1024
 277 00b0 0261     		str	r2, [r0, #16]
 152:Src/i2c.c     ****     hdma_i2c2_tx.Init.PeriphDataAlignment = DMA_PDATAALIGN_BYTE;
 278              		.loc 1 152 0
 279 00b2 4361     		str	r3, [r0, #20]
 153:Src/i2c.c     ****     hdma_i2c2_tx.Init.MemDataAlignment = DMA_MDATAALIGN_BYTE;
 280              		.loc 1 153 0
 281 00b4 8361     		str	r3, [r0, #24]
 154:Src/i2c.c     ****     hdma_i2c2_tx.Init.Mode = DMA_NORMAL;
 282              		.loc 1 154 0
 283 00b6 C361     		str	r3, [r0, #28]
 155:Src/i2c.c     ****     hdma_i2c2_tx.Init.Priority = DMA_PRIORITY_LOW;
 284              		.loc 1 155 0
 285 00b8 0362     		str	r3, [r0, #32]
 156:Src/i2c.c     ****     hdma_i2c2_tx.Init.FIFOMode = DMA_FIFOMODE_DISABLE;
 286              		.loc 1 156 0
 287 00ba 4362     		str	r3, [r0, #36]
 157:Src/i2c.c     ****     if (HAL_DMA_Init(&hdma_i2c2_tx) != HAL_OK)
 288              		.loc 1 157 0
 289 00bc FFF7FEFF 		bl	HAL_DMA_Init
 290              	.LVL10:
 291 00c0 18B1     		cbz	r0, .L14
 158:Src/i2c.c     ****     {
 159:Src/i2c.c     ****       _Error_Handler(__FILE__, __LINE__);
 292              		.loc 1 159 0
 293 00c2 3C48     		ldr	r0, .L19+24
 294 00c4 9F21     		movs	r1, #159
 295 00c6 FFF7FEFF 		bl	_Error_Handler
 296              	.LVL11:
 297              	.L14:
 160:Src/i2c.c     ****     }
 161:Src/i2c.c     **** 
 162:Src/i2c.c     ****     __HAL_LINKDMA(i2cHandle,hdmatx,hdma_i2c2_tx);
 298              		.loc 1 162 0
 299 00ca 3B4B     		ldr	r3, .L19+28
ARM GAS  /var/folders/gg/1prykzgd72385vwcgrq9wzdr0000gn/T//ccja3xKA.s 			page 9


 300 00cc 6363     		str	r3, [r4, #52]
 301 00ce 9C63     		str	r4, [r3, #56]
 302 00d0 60E0     		b	.L11
 303              	.LVL12:
 304              	.L12:
 163:Src/i2c.c     **** 
 164:Src/i2c.c     ****   /* USER CODE BEGIN I2C2_MspInit 1 */
 165:Src/i2c.c     **** 
 166:Src/i2c.c     ****   /* USER CODE END I2C2_MspInit 1 */
 167:Src/i2c.c     ****   }
 168:Src/i2c.c     ****   else if(i2cHandle->Instance==I2C3)
 305              		.loc 1 168 0
 306 00d2 3B4A     		ldr	r2, .L19+36
 307 00d4 9342     		cmp	r3, r2
 308 00d6 5DD1     		bne	.L11
 169:Src/i2c.c     ****   {
 170:Src/i2c.c     ****   /* USER CODE BEGIN I2C3_MspInit 0 */
 171:Src/i2c.c     **** 
 172:Src/i2c.c     ****   /* USER CODE END I2C3_MspInit 0 */
 173:Src/i2c.c     ****   
 174:Src/i2c.c     ****     /**I2C3 GPIO Configuration    
 175:Src/i2c.c     ****     PA8     ------> I2C3_SCL
 176:Src/i2c.c     ****     PB4     ------> I2C3_SDA 
 177:Src/i2c.c     ****     */
 178:Src/i2c.c     ****     GPIO_InitStruct.Pin = GPIO_PIN_8;
 309              		.loc 1 178 0
 310 00d8 4FF48073 		mov	r3, #256
 311 00dc 0393     		str	r3, [sp, #12]
 179:Src/i2c.c     ****     GPIO_InitStruct.Mode = GPIO_MODE_AF_OD;
 312              		.loc 1 179 0
 313 00de 4FF01208 		mov	r8, #18
 314 00e2 CDF81080 		str	r8, [sp, #16]
 180:Src/i2c.c     ****     GPIO_InitStruct.Pull = GPIO_PULLUP;
 315              		.loc 1 180 0
 316 00e6 0127     		movs	r7, #1
 317 00e8 0597     		str	r7, [sp, #20]
 181:Src/i2c.c     ****     GPIO_InitStruct.Speed = GPIO_SPEED_FREQ_VERY_HIGH;
 318              		.loc 1 181 0
 319 00ea 0326     		movs	r6, #3
 320 00ec 0696     		str	r6, [sp, #24]
 182:Src/i2c.c     ****     GPIO_InitStruct.Alternate = GPIO_AF4_I2C3;
 321              		.loc 1 182 0
 322 00ee 0425     		movs	r5, #4
 323 00f0 0795     		str	r5, [sp, #28]
 183:Src/i2c.c     ****     HAL_GPIO_Init(GPIOA, &GPIO_InitStruct);
 324              		.loc 1 183 0
 325 00f2 3448     		ldr	r0, .L19+40
 326              	.LVL13:
 327 00f4 03A9     		add	r1, sp, #12
 328 00f6 FFF7FEFF 		bl	HAL_GPIO_Init
 329              	.LVL14:
 184:Src/i2c.c     **** 
 185:Src/i2c.c     ****     GPIO_InitStruct.Pin = GPIO_PIN_4;
 330              		.loc 1 185 0
 331 00fa 1023     		movs	r3, #16
 332 00fc 0393     		str	r3, [sp, #12]
 186:Src/i2c.c     ****     GPIO_InitStruct.Mode = GPIO_MODE_AF_OD;
ARM GAS  /var/folders/gg/1prykzgd72385vwcgrq9wzdr0000gn/T//ccja3xKA.s 			page 10


 333              		.loc 1 186 0
 334 00fe CDF81080 		str	r8, [sp, #16]
 187:Src/i2c.c     ****     GPIO_InitStruct.Pull = GPIO_PULLUP;
 335              		.loc 1 187 0
 336 0102 0597     		str	r7, [sp, #20]
 188:Src/i2c.c     ****     GPIO_InitStruct.Speed = GPIO_SPEED_FREQ_VERY_HIGH;
 337              		.loc 1 188 0
 338 0104 0696     		str	r6, [sp, #24]
 189:Src/i2c.c     ****     GPIO_InitStruct.Alternate = GPIO_AF4_I2C3;
 339              		.loc 1 189 0
 340 0106 0795     		str	r5, [sp, #28]
 190:Src/i2c.c     ****     HAL_GPIO_Init(GPIOB, &GPIO_InitStruct);
 341              		.loc 1 190 0
 342 0108 2548     		ldr	r0, .L19+4
 343 010a 03A9     		add	r1, sp, #12
 344 010c FFF7FEFF 		bl	HAL_GPIO_Init
 345              	.LVL15:
 346              	.LBB3:
 191:Src/i2c.c     **** 
 192:Src/i2c.c     ****     /* I2C3 clock enable */
 193:Src/i2c.c     ****     __HAL_RCC_I2C3_CLK_ENABLE();
 347              		.loc 1 193 0
 348 0110 0023     		movs	r3, #0
 349 0112 0293     		str	r3, [sp, #8]
 350 0114 244A     		ldr	r2, .L19+12
 351 0116 116C     		ldr	r1, [r2, #64]
 352 0118 41F40001 		orr	r1, r1, #8388608
 353 011c 1164     		str	r1, [r2, #64]
 354 011e 126C     		ldr	r2, [r2, #64]
 355 0120 02F40002 		and	r2, r2, #8388608
 356 0124 0292     		str	r2, [sp, #8]
 357 0126 029A     		ldr	r2, [sp, #8]
 358              	.LBE3:
 194:Src/i2c.c     ****   
 195:Src/i2c.c     ****     /* I2C3 DMA Init */
 196:Src/i2c.c     ****     /* I2C3_RX Init */
 197:Src/i2c.c     ****     hdma_i2c3_rx.Instance = DMA1_Stream1;
 359              		.loc 1 197 0
 360 0128 2748     		ldr	r0, .L19+44
 361 012a 284A     		ldr	r2, .L19+48
 362 012c 0260     		str	r2, [r0]
 198:Src/i2c.c     ****     hdma_i2c3_rx.Init.Channel = DMA_CHANNEL_1;
 363              		.loc 1 198 0
 364 012e 4FF00072 		mov	r2, #33554432
 365 0132 4260     		str	r2, [r0, #4]
 199:Src/i2c.c     ****     hdma_i2c3_rx.Init.Direction = DMA_PERIPH_TO_MEMORY;
 366              		.loc 1 199 0
 367 0134 8360     		str	r3, [r0, #8]
 200:Src/i2c.c     ****     hdma_i2c3_rx.Init.PeriphInc = DMA_PINC_DISABLE;
 368              		.loc 1 200 0
 369 0136 C360     		str	r3, [r0, #12]
 201:Src/i2c.c     ****     hdma_i2c3_rx.Init.MemInc = DMA_MINC_ENABLE;
 370              		.loc 1 201 0
 371 0138 4FF48062 		mov	r2, #1024
 372 013c 0261     		str	r2, [r0, #16]
 202:Src/i2c.c     ****     hdma_i2c3_rx.Init.PeriphDataAlignment = DMA_PDATAALIGN_BYTE;
 373              		.loc 1 202 0
ARM GAS  /var/folders/gg/1prykzgd72385vwcgrq9wzdr0000gn/T//ccja3xKA.s 			page 11


 374 013e 4361     		str	r3, [r0, #20]
 203:Src/i2c.c     ****     hdma_i2c3_rx.Init.MemDataAlignment = DMA_MDATAALIGN_BYTE;
 375              		.loc 1 203 0
 376 0140 8361     		str	r3, [r0, #24]
 204:Src/i2c.c     ****     hdma_i2c3_rx.Init.Mode = DMA_NORMAL;
 377              		.loc 1 204 0
 378 0142 C361     		str	r3, [r0, #28]
 205:Src/i2c.c     ****     hdma_i2c3_rx.Init.Priority = DMA_PRIORITY_LOW;
 379              		.loc 1 205 0
 380 0144 0362     		str	r3, [r0, #32]
 206:Src/i2c.c     ****     hdma_i2c3_rx.Init.FIFOMode = DMA_FIFOMODE_DISABLE;
 381              		.loc 1 206 0
 382 0146 4362     		str	r3, [r0, #36]
 207:Src/i2c.c     ****     if (HAL_DMA_Init(&hdma_i2c3_rx) != HAL_OK)
 383              		.loc 1 207 0
 384 0148 FFF7FEFF 		bl	HAL_DMA_Init
 385              	.LVL16:
 386 014c 18B1     		cbz	r0, .L16
 208:Src/i2c.c     ****     {
 209:Src/i2c.c     ****       _Error_Handler(__FILE__, __LINE__);
 387              		.loc 1 209 0
 388 014e 1948     		ldr	r0, .L19+24
 389 0150 D121     		movs	r1, #209
 390 0152 FFF7FEFF 		bl	_Error_Handler
 391              	.LVL17:
 392              	.L16:
 210:Src/i2c.c     ****     }
 211:Src/i2c.c     **** 
 212:Src/i2c.c     ****     __HAL_LINKDMA(i2cHandle,hdmarx,hdma_i2c3_rx);
 393              		.loc 1 212 0
 394 0156 1C4B     		ldr	r3, .L19+44
 395 0158 A363     		str	r3, [r4, #56]
 396 015a 9C63     		str	r4, [r3, #56]
 213:Src/i2c.c     **** 
 214:Src/i2c.c     ****     /* I2C3_TX Init */
 215:Src/i2c.c     ****     hdma_i2c3_tx.Instance = DMA1_Stream4;
 397              		.loc 1 215 0
 398 015c 1C48     		ldr	r0, .L19+52
 399 015e 1D4B     		ldr	r3, .L19+56
 400 0160 0360     		str	r3, [r0]
 216:Src/i2c.c     ****     hdma_i2c3_tx.Init.Channel = DMA_CHANNEL_3;
 401              		.loc 1 216 0
 402 0162 4FF0C063 		mov	r3, #100663296
 403 0166 4360     		str	r3, [r0, #4]
 217:Src/i2c.c     ****     hdma_i2c3_tx.Init.Direction = DMA_MEMORY_TO_PERIPH;
 404              		.loc 1 217 0
 405 0168 4023     		movs	r3, #64
 406 016a 8360     		str	r3, [r0, #8]
 218:Src/i2c.c     ****     hdma_i2c3_tx.Init.PeriphInc = DMA_PINC_DISABLE;
 407              		.loc 1 218 0
 408 016c 0023     		movs	r3, #0
 409 016e C360     		str	r3, [r0, #12]
 219:Src/i2c.c     ****     hdma_i2c3_tx.Init.MemInc = DMA_MINC_ENABLE;
 410              		.loc 1 219 0
 411 0170 4FF48062 		mov	r2, #1024
 412 0174 0261     		str	r2, [r0, #16]
 220:Src/i2c.c     ****     hdma_i2c3_tx.Init.PeriphDataAlignment = DMA_PDATAALIGN_BYTE;
ARM GAS  /var/folders/gg/1prykzgd72385vwcgrq9wzdr0000gn/T//ccja3xKA.s 			page 12


 413              		.loc 1 220 0
 414 0176 4361     		str	r3, [r0, #20]
 221:Src/i2c.c     ****     hdma_i2c3_tx.Init.MemDataAlignment = DMA_MDATAALIGN_BYTE;
 415              		.loc 1 221 0
 416 0178 8361     		str	r3, [r0, #24]
 222:Src/i2c.c     ****     hdma_i2c3_tx.Init.Mode = DMA_NORMAL;
 417              		.loc 1 222 0
 418 017a C361     		str	r3, [r0, #28]
 223:Src/i2c.c     ****     hdma_i2c3_tx.Init.Priority = DMA_PRIORITY_LOW;
 419              		.loc 1 223 0
 420 017c 0362     		str	r3, [r0, #32]
 224:Src/i2c.c     ****     hdma_i2c3_tx.Init.FIFOMode = DMA_FIFOMODE_DISABLE;
 421              		.loc 1 224 0
 422 017e 4362     		str	r3, [r0, #36]
 225:Src/i2c.c     ****     if (HAL_DMA_Init(&hdma_i2c3_tx) != HAL_OK)
 423              		.loc 1 225 0
 424 0180 FFF7FEFF 		bl	HAL_DMA_Init
 425              	.LVL18:
 426 0184 18B1     		cbz	r0, .L17
 226:Src/i2c.c     ****     {
 227:Src/i2c.c     ****       _Error_Handler(__FILE__, __LINE__);
 427              		.loc 1 227 0
 428 0186 0B48     		ldr	r0, .L19+24
 429 0188 E321     		movs	r1, #227
 430 018a FFF7FEFF 		bl	_Error_Handler
 431              	.LVL19:
 432              	.L17:
 228:Src/i2c.c     ****     }
 229:Src/i2c.c     **** 
 230:Src/i2c.c     ****     __HAL_LINKDMA(i2cHandle,hdmatx,hdma_i2c3_tx);
 433              		.loc 1 230 0
 434 018e 104B     		ldr	r3, .L19+52
 435 0190 6363     		str	r3, [r4, #52]
 436 0192 9C63     		str	r4, [r3, #56]
 437              	.L11:
 231:Src/i2c.c     **** 
 232:Src/i2c.c     ****   /* USER CODE BEGIN I2C3_MspInit 1 */
 233:Src/i2c.c     **** 
 234:Src/i2c.c     ****   /* USER CODE END I2C3_MspInit 1 */
 235:Src/i2c.c     ****   }
 236:Src/i2c.c     **** }
 438              		.loc 1 236 0
 439 0194 09B0     		add	sp, sp, #36
 440              	.LCFI4:
 441              		.cfi_def_cfa_offset 28
 442              		@ sp needed
 443 0196 BDE8F083 		pop	{r4, r5, r6, r7, r8, r9, pc}
 444              	.LVL20:
 445              	.L20:
 446 019a 00BF     		.align	2
 447              	.L19:
 448 019c 00580040 		.word	1073764352
 449 01a0 00040240 		.word	1073873920
 450 01a4 00080240 		.word	1073874944
 451 01a8 00380240 		.word	1073887232
 452 01ac 00000000 		.word	hdma_i2c2_rx
 453 01b0 40600240 		.word	1073897536
ARM GAS  /var/folders/gg/1prykzgd72385vwcgrq9wzdr0000gn/T//ccja3xKA.s 			page 13


 454 01b4 00000000 		.word	.LC0
 455 01b8 00000000 		.word	hdma_i2c2_tx
 456 01bc B8600240 		.word	1073897656
 457 01c0 005C0040 		.word	1073765376
 458 01c4 00000240 		.word	1073872896
 459 01c8 00000000 		.word	hdma_i2c3_rx
 460 01cc 28600240 		.word	1073897512
 461 01d0 00000000 		.word	hdma_i2c3_tx
 462 01d4 70600240 		.word	1073897584
 463              		.cfi_endproc
 464              	.LFE125:
 466              		.section	.text.HAL_I2C_MspDeInit,"ax",%progbits
 467              		.align	2
 468              		.global	HAL_I2C_MspDeInit
 469              		.thumb
 470              		.thumb_func
 472              	HAL_I2C_MspDeInit:
 473              	.LFB126:
 237:Src/i2c.c     **** 
 238:Src/i2c.c     **** void HAL_I2C_MspDeInit(I2C_HandleTypeDef* i2cHandle)
 239:Src/i2c.c     **** {
 474              		.loc 1 239 0
 475              		.cfi_startproc
 476              		@ args = 0, pretend = 0, frame = 0
 477              		@ frame_needed = 0, uses_anonymous_args = 0
 478              	.LVL21:
 479 0000 10B5     		push	{r4, lr}
 480              	.LCFI5:
 481              		.cfi_def_cfa_offset 8
 482              		.cfi_offset 4, -8
 483              		.cfi_offset 14, -4
 484 0002 0446     		mov	r4, r0
 240:Src/i2c.c     **** 
 241:Src/i2c.c     ****   if(i2cHandle->Instance==I2C2)
 485              		.loc 1 241 0
 486 0004 0368     		ldr	r3, [r0]
 487 0006 194A     		ldr	r2, .L25
 488 0008 9342     		cmp	r3, r2
 489 000a 16D1     		bne	.L22
 242:Src/i2c.c     ****   {
 243:Src/i2c.c     ****   /* USER CODE BEGIN I2C2_MspDeInit 0 */
 244:Src/i2c.c     **** 
 245:Src/i2c.c     ****   /* USER CODE END I2C2_MspDeInit 0 */
 246:Src/i2c.c     ****     /* Peripheral clock disable */
 247:Src/i2c.c     ****     __HAL_RCC_I2C2_CLK_DISABLE();
 490              		.loc 1 247 0
 491 000c 02F5F032 		add	r2, r2, #122880
 492 0010 136C     		ldr	r3, [r2, #64]
 493 0012 23F48003 		bic	r3, r3, #4194304
 494 0016 1364     		str	r3, [r2, #64]
 248:Src/i2c.c     ****   
 249:Src/i2c.c     ****     /**I2C2 GPIO Configuration    
 250:Src/i2c.c     ****     PB10     ------> I2C2_SCL
 251:Src/i2c.c     ****     PC12     ------> I2C2_SDA 
 252:Src/i2c.c     ****     */
 253:Src/i2c.c     ****     HAL_GPIO_DeInit(GPIOB, GPIO_PIN_10);
 495              		.loc 1 253 0
ARM GAS  /var/folders/gg/1prykzgd72385vwcgrq9wzdr0000gn/T//ccja3xKA.s 			page 14


 496 0018 1548     		ldr	r0, .L25+4
 497              	.LVL22:
 498 001a 4FF48061 		mov	r1, #1024
 499 001e FFF7FEFF 		bl	HAL_GPIO_DeInit
 500              	.LVL23:
 254:Src/i2c.c     **** 
 255:Src/i2c.c     ****     HAL_GPIO_DeInit(GPIOC, GPIO_PIN_12);
 501              		.loc 1 255 0
 502 0022 1448     		ldr	r0, .L25+8
 503 0024 4FF48051 		mov	r1, #4096
 504 0028 FFF7FEFF 		bl	HAL_GPIO_DeInit
 505              	.LVL24:
 256:Src/i2c.c     **** 
 257:Src/i2c.c     ****     /* I2C2 DMA DeInit */
 258:Src/i2c.c     ****     HAL_DMA_DeInit(i2cHandle->hdmarx);
 506              		.loc 1 258 0
 507 002c A06B     		ldr	r0, [r4, #56]
 508 002e FFF7FEFF 		bl	HAL_DMA_DeInit
 509              	.LVL25:
 259:Src/i2c.c     ****     HAL_DMA_DeInit(i2cHandle->hdmatx);
 510              		.loc 1 259 0
 511 0032 606B     		ldr	r0, [r4, #52]
 512 0034 FFF7FEFF 		bl	HAL_DMA_DeInit
 513              	.LVL26:
 514 0038 10BD     		pop	{r4, pc}
 515              	.LVL27:
 516              	.L22:
 260:Src/i2c.c     ****   /* USER CODE BEGIN I2C2_MspDeInit 1 */
 261:Src/i2c.c     **** 
 262:Src/i2c.c     ****   /* USER CODE END I2C2_MspDeInit 1 */
 263:Src/i2c.c     ****   }
 264:Src/i2c.c     ****   else if(i2cHandle->Instance==I2C3)
 517              		.loc 1 264 0
 518 003a 0F4A     		ldr	r2, .L25+12
 519 003c 9342     		cmp	r3, r2
 520 003e 14D1     		bne	.L21
 265:Src/i2c.c     ****   {
 266:Src/i2c.c     ****   /* USER CODE BEGIN I2C3_MspDeInit 0 */
 267:Src/i2c.c     **** 
 268:Src/i2c.c     ****   /* USER CODE END I2C3_MspDeInit 0 */
 269:Src/i2c.c     ****     /* Peripheral clock disable */
 270:Src/i2c.c     ****     __HAL_RCC_I2C3_CLK_DISABLE();
 521              		.loc 1 270 0
 522 0040 02F5EE32 		add	r2, r2, #121856
 523 0044 136C     		ldr	r3, [r2, #64]
 524 0046 23F40003 		bic	r3, r3, #8388608
 525 004a 1364     		str	r3, [r2, #64]
 271:Src/i2c.c     ****   
 272:Src/i2c.c     ****     /**I2C3 GPIO Configuration    
 273:Src/i2c.c     ****     PA8     ------> I2C3_SCL
 274:Src/i2c.c     ****     PB4     ------> I2C3_SDA 
 275:Src/i2c.c     ****     */
 276:Src/i2c.c     ****     HAL_GPIO_DeInit(GPIOA, GPIO_PIN_8);
 526              		.loc 1 276 0
 527 004c 0B48     		ldr	r0, .L25+16
 528              	.LVL28:
 529 004e 4FF48071 		mov	r1, #256
ARM GAS  /var/folders/gg/1prykzgd72385vwcgrq9wzdr0000gn/T//ccja3xKA.s 			page 15


 530 0052 FFF7FEFF 		bl	HAL_GPIO_DeInit
 531              	.LVL29:
 277:Src/i2c.c     **** 
 278:Src/i2c.c     ****     HAL_GPIO_DeInit(GPIOB, GPIO_PIN_4);
 532              		.loc 1 278 0
 533 0056 0648     		ldr	r0, .L25+4
 534 0058 1021     		movs	r1, #16
 535 005a FFF7FEFF 		bl	HAL_GPIO_DeInit
 536              	.LVL30:
 279:Src/i2c.c     **** 
 280:Src/i2c.c     ****     /* I2C3 DMA DeInit */
 281:Src/i2c.c     ****     HAL_DMA_DeInit(i2cHandle->hdmarx);
 537              		.loc 1 281 0
 538 005e A06B     		ldr	r0, [r4, #56]
 539 0060 FFF7FEFF 		bl	HAL_DMA_DeInit
 540              	.LVL31:
 282:Src/i2c.c     ****     HAL_DMA_DeInit(i2cHandle->hdmatx);
 541              		.loc 1 282 0
 542 0064 606B     		ldr	r0, [r4, #52]
 543 0066 FFF7FEFF 		bl	HAL_DMA_DeInit
 544              	.LVL32:
 545              	.L21:
 546 006a 10BD     		pop	{r4, pc}
 547              	.LVL33:
 548              	.L26:
 549              		.align	2
 550              	.L25:
 551 006c 00580040 		.word	1073764352
 552 0070 00040240 		.word	1073873920
 553 0074 00080240 		.word	1073874944
 554 0078 005C0040 		.word	1073765376
 555 007c 00000240 		.word	1073872896
 556              		.cfi_endproc
 557              	.LFE126:
 559              		.comm	hdma_i2c3_tx,96,4
 560              		.comm	hdma_i2c3_rx,96,4
 561              		.comm	hdma_i2c2_tx,96,4
 562              		.comm	hdma_i2c2_rx,96,4
 563              		.comm	hi2c3,84,4
 564              		.comm	hi2c2,84,4
 565              		.section	.rodata.str1.4,"aMS",%progbits,1
 566              		.align	2
 567              	.LC0:
 568 0000 5372632F 		.ascii	"Src/i2c.c\000"
 568      6932632E 
 568      6300
 569 000a 0000     		.text
 570              	.Letext0:
 571              		.file 2 "/Users/justinng/Documents/Github/roborodentia2017/arm/arm-none-eabi/include/machine/_defa
 572              		.file 3 "/Users/justinng/Documents/Github/roborodentia2017/arm/arm-none-eabi/include/stdint.h"
 573              		.file 4 "Drivers/CMSIS/Device/ST/STM32F4xx/Include/stm32f446xx.h"
 574              		.file 5 "Drivers/STM32F4xx_HAL_Driver/Inc/stm32f4xx_hal_def.h"
 575              		.file 6 "Drivers/STM32F4xx_HAL_Driver/Inc/stm32f4xx_hal_gpio.h"
 576              		.file 7 "Drivers/STM32F4xx_HAL_Driver/Inc/stm32f4xx_hal_dma.h"
 577              		.file 8 "Drivers/STM32F4xx_HAL_Driver/Inc/stm32f4xx_hal_i2c.h"
 578              		.file 9 "Drivers/CMSIS/Include/core_cm4.h"
 579              		.file 10 "Inc/dma.h"
ARM GAS  /var/folders/gg/1prykzgd72385vwcgrq9wzdr0000gn/T//ccja3xKA.s 			page 16


ARM GAS  /var/folders/gg/1prykzgd72385vwcgrq9wzdr0000gn/T//ccja3xKA.s 			page 17

