ARM GAS  /var/folders/gg/1prykzgd72385vwcgrq9wzdr0000gn/T//ccs7h67q.s 			page 1


   1              		.syntax unified
   2              		.cpu cortex-m4
   3              		.eabi_attribute 27, 3
   4              		.eabi_attribute 28, 1
   5              		.fpu fpv4-sp-d16
   6              		.eabi_attribute 20, 1
   7              		.eabi_attribute 21, 1
   8              		.eabi_attribute 23, 3
   9              		.eabi_attribute 24, 1
  10              		.eabi_attribute 25, 1
  11              		.eabi_attribute 26, 1
  12              		.eabi_attribute 30, 1
  13              		.eabi_attribute 34, 1
  14              		.eabi_attribute 18, 4
  15              		.thumb
  16              		.file	"usart.c"
  17              		.text
  18              	.Ltext0:
  19              		.cfi_sections	.debug_frame
  20              		.section	.text.MX_USART2_UART_Init,"ax",%progbits
  21              		.align	2
  22              		.global	MX_USART2_UART_Init
  23              		.thumb
  24              		.thumb_func
  26              	MX_USART2_UART_Init:
  27              	.LFB123:
  28              		.file 1 "Src/usart.c"
   1:Src/usart.c   **** /**
   2:Src/usart.c   ****   ******************************************************************************
   3:Src/usart.c   ****   * File Name          : USART.c
   4:Src/usart.c   ****   * Description        : This file provides code for the configuration
   5:Src/usart.c   ****   *                      of the USART instances.
   6:Src/usart.c   ****   ******************************************************************************
   7:Src/usart.c   ****   ** This notice applies to any and all portions of this file
   8:Src/usart.c   ****   * that are not between comment pairs USER CODE BEGIN and
   9:Src/usart.c   ****   * USER CODE END. Other portions of this file, whether 
  10:Src/usart.c   ****   * inserted by the user or by software development tools
  11:Src/usart.c   ****   * are owned by their respective copyright owners.
  12:Src/usart.c   ****   *
  13:Src/usart.c   ****   * COPYRIGHT(c) 2018 STMicroelectronics
  14:Src/usart.c   ****   *
  15:Src/usart.c   ****   * Redistribution and use in source and binary forms, with or without modification,
  16:Src/usart.c   ****   * are permitted provided that the following conditions are met:
  17:Src/usart.c   ****   *   1. Redistributions of source code must retain the above copyright notice,
  18:Src/usart.c   ****   *      this list of conditions and the following disclaimer.
  19:Src/usart.c   ****   *   2. Redistributions in binary form must reproduce the above copyright notice,
  20:Src/usart.c   ****   *      this list of conditions and the following disclaimer in the documentation
  21:Src/usart.c   ****   *      and/or other materials provided with the distribution.
  22:Src/usart.c   ****   *   3. Neither the name of STMicroelectronics nor the names of its contributors
  23:Src/usart.c   ****   *      may be used to endorse or promote products derived from this software
  24:Src/usart.c   ****   *      without specific prior written permission.
  25:Src/usart.c   ****   *
  26:Src/usart.c   ****   * THIS SOFTWARE IS PROVIDED BY THE COPYRIGHT HOLDERS AND CONTRIBUTORS "AS IS"
  27:Src/usart.c   ****   * AND ANY EXPRESS OR IMPLIED WARRANTIES, INCLUDING, BUT NOT LIMITED TO, THE
  28:Src/usart.c   ****   * IMPLIED WARRANTIES OF MERCHANTABILITY AND FITNESS FOR A PARTICULAR PURPOSE ARE
  29:Src/usart.c   ****   * DISCLAIMED. IN NO EVENT SHALL THE COPYRIGHT HOLDER OR CONTRIBUTORS BE LIABLE
  30:Src/usart.c   ****   * FOR ANY DIRECT, INDIRECT, INCIDENTAL, SPECIAL, EXEMPLARY, OR CONSEQUENTIAL
ARM GAS  /var/folders/gg/1prykzgd72385vwcgrq9wzdr0000gn/T//ccs7h67q.s 			page 2


  31:Src/usart.c   ****   * DAMAGES (INCLUDING, BUT NOT LIMITED TO, PROCUREMENT OF SUBSTITUTE GOODS OR
  32:Src/usart.c   ****   * SERVICES; LOSS OF USE, DATA, OR PROFITS; OR BUSINESS INTERRUPTION) HOWEVER
  33:Src/usart.c   ****   * CAUSED AND ON ANY THEORY OF LIABILITY, WHETHER IN CONTRACT, STRICT LIABILITY,
  34:Src/usart.c   ****   * OR TORT (INCLUDING NEGLIGENCE OR OTHERWISE) ARISING IN ANY WAY OUT OF THE USE
  35:Src/usart.c   ****   * OF THIS SOFTWARE, EVEN IF ADVISED OF THE POSSIBILITY OF SUCH DAMAGE.
  36:Src/usart.c   ****   *
  37:Src/usart.c   ****   ******************************************************************************
  38:Src/usart.c   ****   */
  39:Src/usart.c   **** 
  40:Src/usart.c   **** /* Includes ------------------------------------------------------------------*/
  41:Src/usart.c   **** #include "usart.h"
  42:Src/usart.c   **** 
  43:Src/usart.c   **** #include "gpio.h"
  44:Src/usart.c   **** #include "dma.h"
  45:Src/usart.c   **** 
  46:Src/usart.c   **** /* USER CODE BEGIN 0 */
  47:Src/usart.c   **** 
  48:Src/usart.c   **** /* USER CODE END 0 */
  49:Src/usart.c   **** 
  50:Src/usart.c   **** UART_HandleTypeDef huart2;
  51:Src/usart.c   **** DMA_HandleTypeDef hdma_usart2_rx;
  52:Src/usart.c   **** DMA_HandleTypeDef hdma_usart2_tx;
  53:Src/usart.c   **** 
  54:Src/usart.c   **** /* USART2 init function */
  55:Src/usart.c   **** 
  56:Src/usart.c   **** void MX_USART2_UART_Init(void)
  57:Src/usart.c   **** {
  29              		.loc 1 57 0
  30              		.cfi_startproc
  31              		@ args = 0, pretend = 0, frame = 0
  32              		@ frame_needed = 0, uses_anonymous_args = 0
  33 0000 08B5     		push	{r3, lr}
  34              	.LCFI0:
  35              		.cfi_def_cfa_offset 8
  36              		.cfi_offset 3, -8
  37              		.cfi_offset 14, -4
  58:Src/usart.c   **** 
  59:Src/usart.c   ****   huart2.Instance = USART2;
  38              		.loc 1 59 0
  39 0002 0B48     		ldr	r0, .L4
  40 0004 0B4B     		ldr	r3, .L4+4
  41 0006 0360     		str	r3, [r0]
  60:Src/usart.c   ****   huart2.Init.BaudRate = 921600;
  42              		.loc 1 60 0
  43 0008 4FF46123 		mov	r3, #921600
  44 000c 4360     		str	r3, [r0, #4]
  61:Src/usart.c   ****   huart2.Init.WordLength = UART_WORDLENGTH_8B;
  45              		.loc 1 61 0
  46 000e 0023     		movs	r3, #0
  47 0010 8360     		str	r3, [r0, #8]
  62:Src/usart.c   ****   huart2.Init.StopBits = UART_STOPBITS_1;
  48              		.loc 1 62 0
  49 0012 C360     		str	r3, [r0, #12]
  63:Src/usart.c   ****   huart2.Init.Parity = UART_PARITY_NONE;
  50              		.loc 1 63 0
  51 0014 0361     		str	r3, [r0, #16]
  64:Src/usart.c   ****   huart2.Init.Mode = UART_MODE_TX_RX;
ARM GAS  /var/folders/gg/1prykzgd72385vwcgrq9wzdr0000gn/T//ccs7h67q.s 			page 3


  52              		.loc 1 64 0
  53 0016 0C22     		movs	r2, #12
  54 0018 4261     		str	r2, [r0, #20]
  65:Src/usart.c   ****   huart2.Init.HwFlowCtl = UART_HWCONTROL_NONE;
  55              		.loc 1 65 0
  56 001a 8361     		str	r3, [r0, #24]
  66:Src/usart.c   ****   huart2.Init.OverSampling = UART_OVERSAMPLING_16;
  57              		.loc 1 66 0
  58 001c C361     		str	r3, [r0, #28]
  67:Src/usart.c   ****   if (HAL_UART_Init(&huart2) != HAL_OK)
  59              		.loc 1 67 0
  60 001e FFF7FEFF 		bl	HAL_UART_Init
  61              	.LVL0:
  62 0022 18B1     		cbz	r0, .L1
  68:Src/usart.c   ****   {
  69:Src/usart.c   ****     _Error_Handler(__FILE__, __LINE__);
  63              		.loc 1 69 0
  64 0024 0448     		ldr	r0, .L4+8
  65 0026 4521     		movs	r1, #69
  66 0028 FFF7FEFF 		bl	_Error_Handler
  67              	.LVL1:
  68              	.L1:
  69 002c 08BD     		pop	{r3, pc}
  70              	.L5:
  71 002e 00BF     		.align	2
  72              	.L4:
  73 0030 00000000 		.word	huart2
  74 0034 00440040 		.word	1073759232
  75 0038 00000000 		.word	.LC0
  76              		.cfi_endproc
  77              	.LFE123:
  79              		.section	.text.HAL_UART_MspInit,"ax",%progbits
  80              		.align	2
  81              		.global	HAL_UART_MspInit
  82              		.thumb
  83              		.thumb_func
  85              	HAL_UART_MspInit:
  86              	.LFB124:
  70:Src/usart.c   ****   }
  71:Src/usart.c   **** 
  72:Src/usart.c   **** }
  73:Src/usart.c   **** 
  74:Src/usart.c   **** void HAL_UART_MspInit(UART_HandleTypeDef* uartHandle)
  75:Src/usart.c   **** {
  87              		.loc 1 75 0
  88              		.cfi_startproc
  89              		@ args = 0, pretend = 0, frame = 24
  90              		@ frame_needed = 0, uses_anonymous_args = 0
  91              	.LVL2:
  76:Src/usart.c   **** 
  77:Src/usart.c   ****   GPIO_InitTypeDef GPIO_InitStruct;
  78:Src/usart.c   ****   if(uartHandle->Instance==USART2)
  92              		.loc 1 78 0
  93 0000 0268     		ldr	r2, [r0]
  94 0002 2D4B     		ldr	r3, .L12
  95 0004 9A42     		cmp	r2, r3
  96 0006 55D1     		bne	.L11
ARM GAS  /var/folders/gg/1prykzgd72385vwcgrq9wzdr0000gn/T//ccs7h67q.s 			page 4


  75:Src/usart.c   **** 
  97              		.loc 1 75 0
  98 0008 30B5     		push	{r4, r5, lr}
  99              	.LCFI1:
 100              		.cfi_def_cfa_offset 12
 101              		.cfi_offset 4, -12
 102              		.cfi_offset 5, -8
 103              		.cfi_offset 14, -4
 104 000a 87B0     		sub	sp, sp, #28
 105              	.LCFI2:
 106              		.cfi_def_cfa_offset 40
 107 000c 0446     		mov	r4, r0
 108              	.LBB2:
  79:Src/usart.c   ****   {
  80:Src/usart.c   ****   /* USER CODE BEGIN USART2_MspInit 0 */
  81:Src/usart.c   **** 
  82:Src/usart.c   ****   /* USER CODE END USART2_MspInit 0 */
  83:Src/usart.c   ****     /* USART2 clock enable */
  84:Src/usart.c   ****     __HAL_RCC_USART2_CLK_ENABLE();
 109              		.loc 1 84 0
 110 000e 0025     		movs	r5, #0
 111 0010 0095     		str	r5, [sp]
 112 0012 03F5FA33 		add	r3, r3, #128000
 113 0016 1A6C     		ldr	r2, [r3, #64]
 114 0018 42F40032 		orr	r2, r2, #131072
 115 001c 1A64     		str	r2, [r3, #64]
 116 001e 1B6C     		ldr	r3, [r3, #64]
 117 0020 03F40033 		and	r3, r3, #131072
 118 0024 0093     		str	r3, [sp]
 119 0026 009B     		ldr	r3, [sp]
 120              	.LBE2:
  85:Src/usart.c   ****   
  86:Src/usart.c   ****     /**USART2 GPIO Configuration    
  87:Src/usart.c   ****     PA2     ------> USART2_TX
  88:Src/usart.c   ****     PA3     ------> USART2_RX 
  89:Src/usart.c   ****     */
  90:Src/usart.c   ****     GPIO_InitStruct.Pin = USART_TX_Pin|USART_RX_Pin;
 121              		.loc 1 90 0
 122 0028 0C23     		movs	r3, #12
 123 002a 0193     		str	r3, [sp, #4]
  91:Src/usart.c   ****     GPIO_InitStruct.Mode = GPIO_MODE_AF_PP;
 124              		.loc 1 91 0
 125 002c 0223     		movs	r3, #2
 126 002e 0293     		str	r3, [sp, #8]
  92:Src/usart.c   ****     GPIO_InitStruct.Pull = GPIO_PULLUP;
 127              		.loc 1 92 0
 128 0030 0123     		movs	r3, #1
 129 0032 0393     		str	r3, [sp, #12]
  93:Src/usart.c   ****     GPIO_InitStruct.Speed = GPIO_SPEED_FREQ_VERY_HIGH;
 130              		.loc 1 93 0
 131 0034 0323     		movs	r3, #3
 132 0036 0493     		str	r3, [sp, #16]
  94:Src/usart.c   ****     GPIO_InitStruct.Alternate = GPIO_AF7_USART2;
 133              		.loc 1 94 0
 134 0038 0723     		movs	r3, #7
 135 003a 0593     		str	r3, [sp, #20]
  95:Src/usart.c   ****     HAL_GPIO_Init(GPIOA, &GPIO_InitStruct);
ARM GAS  /var/folders/gg/1prykzgd72385vwcgrq9wzdr0000gn/T//ccs7h67q.s 			page 5


 136              		.loc 1 95 0
 137 003c 1F48     		ldr	r0, .L12+4
 138              	.LVL3:
 139 003e 01A9     		add	r1, sp, #4
 140 0040 FFF7FEFF 		bl	HAL_GPIO_Init
 141              	.LVL4:
  96:Src/usart.c   **** 
  97:Src/usart.c   ****     /* USART2 DMA Init */
  98:Src/usart.c   ****     /* USART2_RX Init */
  99:Src/usart.c   ****     hdma_usart2_rx.Instance = DMA1_Stream5;
 142              		.loc 1 99 0
 143 0044 1E48     		ldr	r0, .L12+8
 144 0046 1F4B     		ldr	r3, .L12+12
 145 0048 0360     		str	r3, [r0]
 100:Src/usart.c   ****     hdma_usart2_rx.Init.Channel = DMA_CHANNEL_4;
 146              		.loc 1 100 0
 147 004a 4FF00063 		mov	r3, #134217728
 148 004e 4360     		str	r3, [r0, #4]
 101:Src/usart.c   ****     hdma_usart2_rx.Init.Direction = DMA_PERIPH_TO_MEMORY;
 149              		.loc 1 101 0
 150 0050 8560     		str	r5, [r0, #8]
 102:Src/usart.c   ****     hdma_usart2_rx.Init.PeriphInc = DMA_PINC_DISABLE;
 151              		.loc 1 102 0
 152 0052 C560     		str	r5, [r0, #12]
 103:Src/usart.c   ****     hdma_usart2_rx.Init.MemInc = DMA_MINC_ENABLE;
 153              		.loc 1 103 0
 154 0054 4FF48063 		mov	r3, #1024
 155 0058 0361     		str	r3, [r0, #16]
 104:Src/usart.c   ****     hdma_usart2_rx.Init.PeriphDataAlignment = DMA_PDATAALIGN_BYTE;
 156              		.loc 1 104 0
 157 005a 4561     		str	r5, [r0, #20]
 105:Src/usart.c   ****     hdma_usart2_rx.Init.MemDataAlignment = DMA_MDATAALIGN_BYTE;
 158              		.loc 1 105 0
 159 005c 8561     		str	r5, [r0, #24]
 106:Src/usart.c   ****     hdma_usart2_rx.Init.Mode = DMA_NORMAL;
 160              		.loc 1 106 0
 161 005e C561     		str	r5, [r0, #28]
 107:Src/usart.c   ****     hdma_usart2_rx.Init.Priority = DMA_PRIORITY_LOW;
 162              		.loc 1 107 0
 163 0060 0562     		str	r5, [r0, #32]
 108:Src/usart.c   ****     hdma_usart2_rx.Init.FIFOMode = DMA_FIFOMODE_DISABLE;
 164              		.loc 1 108 0
 165 0062 4562     		str	r5, [r0, #36]
 109:Src/usart.c   ****     if (HAL_DMA_Init(&hdma_usart2_rx) != HAL_OK)
 166              		.loc 1 109 0
 167 0064 FFF7FEFF 		bl	HAL_DMA_Init
 168              	.LVL5:
 169 0068 18B1     		cbz	r0, .L8
 110:Src/usart.c   ****     {
 111:Src/usart.c   ****       _Error_Handler(__FILE__, __LINE__);
 170              		.loc 1 111 0
 171 006a 1748     		ldr	r0, .L12+16
 172 006c 6F21     		movs	r1, #111
 173 006e FFF7FEFF 		bl	_Error_Handler
 174              	.LVL6:
 175              	.L8:
 112:Src/usart.c   ****     }
ARM GAS  /var/folders/gg/1prykzgd72385vwcgrq9wzdr0000gn/T//ccs7h67q.s 			page 6


 113:Src/usart.c   **** 
 114:Src/usart.c   ****     __HAL_LINKDMA(uartHandle,hdmarx,hdma_usart2_rx);
 176              		.loc 1 114 0
 177 0072 134B     		ldr	r3, .L12+8
 178 0074 6363     		str	r3, [r4, #52]
 179 0076 9C63     		str	r4, [r3, #56]
 115:Src/usart.c   **** 
 116:Src/usart.c   ****     /* USART2_TX Init */
 117:Src/usart.c   ****     hdma_usart2_tx.Instance = DMA1_Stream6;
 180              		.loc 1 117 0
 181 0078 1448     		ldr	r0, .L12+20
 182 007a 154B     		ldr	r3, .L12+24
 183 007c 0360     		str	r3, [r0]
 118:Src/usart.c   ****     hdma_usart2_tx.Init.Channel = DMA_CHANNEL_4;
 184              		.loc 1 118 0
 185 007e 4FF00063 		mov	r3, #134217728
 186 0082 4360     		str	r3, [r0, #4]
 119:Src/usart.c   ****     hdma_usart2_tx.Init.Direction = DMA_MEMORY_TO_PERIPH;
 187              		.loc 1 119 0
 188 0084 4023     		movs	r3, #64
 189 0086 8360     		str	r3, [r0, #8]
 120:Src/usart.c   ****     hdma_usart2_tx.Init.PeriphInc = DMA_PINC_DISABLE;
 190              		.loc 1 120 0
 191 0088 0023     		movs	r3, #0
 192 008a C360     		str	r3, [r0, #12]
 121:Src/usart.c   ****     hdma_usart2_tx.Init.MemInc = DMA_MINC_ENABLE;
 193              		.loc 1 121 0
 194 008c 4FF48062 		mov	r2, #1024
 195 0090 0261     		str	r2, [r0, #16]
 122:Src/usart.c   ****     hdma_usart2_tx.Init.PeriphDataAlignment = DMA_PDATAALIGN_BYTE;
 196              		.loc 1 122 0
 197 0092 4361     		str	r3, [r0, #20]
 123:Src/usart.c   ****     hdma_usart2_tx.Init.MemDataAlignment = DMA_MDATAALIGN_BYTE;
 198              		.loc 1 123 0
 199 0094 8361     		str	r3, [r0, #24]
 124:Src/usart.c   ****     hdma_usart2_tx.Init.Mode = DMA_NORMAL;
 200              		.loc 1 124 0
 201 0096 C361     		str	r3, [r0, #28]
 125:Src/usart.c   ****     hdma_usart2_tx.Init.Priority = DMA_PRIORITY_LOW;
 202              		.loc 1 125 0
 203 0098 0362     		str	r3, [r0, #32]
 126:Src/usart.c   ****     hdma_usart2_tx.Init.FIFOMode = DMA_FIFOMODE_DISABLE;
 204              		.loc 1 126 0
 205 009a 4362     		str	r3, [r0, #36]
 127:Src/usart.c   ****     if (HAL_DMA_Init(&hdma_usart2_tx) != HAL_OK)
 206              		.loc 1 127 0
 207 009c FFF7FEFF 		bl	HAL_DMA_Init
 208              	.LVL7:
 209 00a0 18B1     		cbz	r0, .L9
 128:Src/usart.c   ****     {
 129:Src/usart.c   ****       _Error_Handler(__FILE__, __LINE__);
 210              		.loc 1 129 0
 211 00a2 0948     		ldr	r0, .L12+16
 212 00a4 8121     		movs	r1, #129
 213 00a6 FFF7FEFF 		bl	_Error_Handler
 214              	.LVL8:
 215              	.L9:
ARM GAS  /var/folders/gg/1prykzgd72385vwcgrq9wzdr0000gn/T//ccs7h67q.s 			page 7


 130:Src/usart.c   ****     }
 131:Src/usart.c   **** 
 132:Src/usart.c   ****     __HAL_LINKDMA(uartHandle,hdmatx,hdma_usart2_tx);
 216              		.loc 1 132 0
 217 00aa 084B     		ldr	r3, .L12+20
 218 00ac 2363     		str	r3, [r4, #48]
 219 00ae 9C63     		str	r4, [r3, #56]
 133:Src/usart.c   **** 
 134:Src/usart.c   ****   /* USER CODE BEGIN USART2_MspInit 1 */
 135:Src/usart.c   **** 
 136:Src/usart.c   ****   /* USER CODE END USART2_MspInit 1 */
 137:Src/usart.c   ****   }
 138:Src/usart.c   **** }
 220              		.loc 1 138 0
 221 00b0 07B0     		add	sp, sp, #28
 222              	.LCFI3:
 223              		.cfi_def_cfa_offset 12
 224              		@ sp needed
 225 00b2 30BD     		pop	{r4, r5, pc}
 226              	.LVL9:
 227              	.L11:
 228              	.LCFI4:
 229              		.cfi_def_cfa_offset 0
 230              		.cfi_restore 4
 231              		.cfi_restore 5
 232              		.cfi_restore 14
 233 00b4 7047     		bx	lr
 234              	.L13:
 235 00b6 00BF     		.align	2
 236              	.L12:
 237 00b8 00440040 		.word	1073759232
 238 00bc 00000240 		.word	1073872896
 239 00c0 00000000 		.word	hdma_usart2_rx
 240 00c4 88600240 		.word	1073897608
 241 00c8 00000000 		.word	.LC0
 242 00cc 00000000 		.word	hdma_usart2_tx
 243 00d0 A0600240 		.word	1073897632
 244              		.cfi_endproc
 245              	.LFE124:
 247              		.section	.text.HAL_UART_MspDeInit,"ax",%progbits
 248              		.align	2
 249              		.global	HAL_UART_MspDeInit
 250              		.thumb
 251              		.thumb_func
 253              	HAL_UART_MspDeInit:
 254              	.LFB125:
 139:Src/usart.c   **** 
 140:Src/usart.c   **** void HAL_UART_MspDeInit(UART_HandleTypeDef* uartHandle)
 141:Src/usart.c   **** {
 255              		.loc 1 141 0
 256              		.cfi_startproc
 257              		@ args = 0, pretend = 0, frame = 0
 258              		@ frame_needed = 0, uses_anonymous_args = 0
 259              	.LVL10:
 142:Src/usart.c   **** 
 143:Src/usart.c   ****   if(uartHandle->Instance==USART2)
 260              		.loc 1 143 0
ARM GAS  /var/folders/gg/1prykzgd72385vwcgrq9wzdr0000gn/T//ccs7h67q.s 			page 8


 261 0000 0268     		ldr	r2, [r0]
 262 0002 0B4B     		ldr	r3, .L18
 263 0004 9A42     		cmp	r2, r3
 264 0006 11D1     		bne	.L17
 141:Src/usart.c   **** 
 265              		.loc 1 141 0
 266 0008 10B5     		push	{r4, lr}
 267              	.LCFI5:
 268              		.cfi_def_cfa_offset 8
 269              		.cfi_offset 4, -8
 270              		.cfi_offset 14, -4
 271 000a 0446     		mov	r4, r0
 144:Src/usart.c   ****   {
 145:Src/usart.c   ****   /* USER CODE BEGIN USART2_MspDeInit 0 */
 146:Src/usart.c   **** 
 147:Src/usart.c   ****   /* USER CODE END USART2_MspDeInit 0 */
 148:Src/usart.c   ****     /* Peripheral clock disable */
 149:Src/usart.c   ****     __HAL_RCC_USART2_CLK_DISABLE();
 272              		.loc 1 149 0
 273 000c 094A     		ldr	r2, .L18+4
 274 000e 136C     		ldr	r3, [r2, #64]
 275 0010 23F40033 		bic	r3, r3, #131072
 276 0014 1364     		str	r3, [r2, #64]
 150:Src/usart.c   ****   
 151:Src/usart.c   ****     /**USART2 GPIO Configuration    
 152:Src/usart.c   ****     PA2     ------> USART2_TX
 153:Src/usart.c   ****     PA3     ------> USART2_RX 
 154:Src/usart.c   ****     */
 155:Src/usart.c   ****     HAL_GPIO_DeInit(GPIOA, USART_TX_Pin|USART_RX_Pin);
 277              		.loc 1 155 0
 278 0016 0848     		ldr	r0, .L18+8
 279              	.LVL11:
 280 0018 0C21     		movs	r1, #12
 281 001a FFF7FEFF 		bl	HAL_GPIO_DeInit
 282              	.LVL12:
 156:Src/usart.c   **** 
 157:Src/usart.c   ****     /* USART2 DMA DeInit */
 158:Src/usart.c   ****     HAL_DMA_DeInit(uartHandle->hdmarx);
 283              		.loc 1 158 0
 284 001e 606B     		ldr	r0, [r4, #52]
 285 0020 FFF7FEFF 		bl	HAL_DMA_DeInit
 286              	.LVL13:
 159:Src/usart.c   ****     HAL_DMA_DeInit(uartHandle->hdmatx);
 287              		.loc 1 159 0
 288 0024 206B     		ldr	r0, [r4, #48]
 289 0026 FFF7FEFF 		bl	HAL_DMA_DeInit
 290              	.LVL14:
 291 002a 10BD     		pop	{r4, pc}
 292              	.LVL15:
 293              	.L17:
 294              	.LCFI6:
 295              		.cfi_def_cfa_offset 0
 296              		.cfi_restore 4
 297              		.cfi_restore 14
 298 002c 7047     		bx	lr
 299              	.L19:
 300 002e 00BF     		.align	2
ARM GAS  /var/folders/gg/1prykzgd72385vwcgrq9wzdr0000gn/T//ccs7h67q.s 			page 9


 301              	.L18:
 302 0030 00440040 		.word	1073759232
 303 0034 00380240 		.word	1073887232
 304 0038 00000240 		.word	1073872896
 305              		.cfi_endproc
 306              	.LFE125:
 308              		.comm	hdma_usart2_tx,96,4
 309              		.comm	hdma_usart2_rx,96,4
 310              		.comm	huart2,64,4
 311              		.section	.rodata.str1.4,"aMS",%progbits,1
 312              		.align	2
 313              	.LC0:
 314 0000 5372632F 		.ascii	"Src/usart.c\000"
 314      75736172 
 314      742E6300 
 315              		.text
 316              	.Letext0:
 317              		.file 2 "/Users/justinng/Documents/Github/roborodentia2017/arm/arm-none-eabi/include/machine/_defa
 318              		.file 3 "/Users/justinng/Documents/Github/roborodentia2017/arm/arm-none-eabi/include/stdint.h"
 319              		.file 4 "Drivers/CMSIS/Device/ST/STM32F4xx/Include/stm32f446xx.h"
 320              		.file 5 "Drivers/STM32F4xx_HAL_Driver/Inc/stm32f4xx_hal_def.h"
 321              		.file 6 "Drivers/STM32F4xx_HAL_Driver/Inc/stm32f4xx_hal_gpio.h"
 322              		.file 7 "Drivers/STM32F4xx_HAL_Driver/Inc/stm32f4xx_hal_dma.h"
 323              		.file 8 "Drivers/STM32F4xx_HAL_Driver/Inc/stm32f4xx_hal_uart.h"
 324              		.file 9 "Drivers/CMSIS/Include/core_cm4.h"
 325              		.file 10 "Inc/dma.h"
ARM GAS  /var/folders/gg/1prykzgd72385vwcgrq9wzdr0000gn/T//ccs7h67q.s 			page 10

